target datalayout = "e-m:e-p270:32:32-p271:32:32-p272:64:64-i64:64-i128:128-f80:128-n8:16:32:64-S128"
target triple = "x86_64-pc-linux-gnu"

%struct._packet_info = type { ptr, ptr, i32, i32, %struct.nstime_t, %struct.nstime_t, %struct.nstime_t, i8, ptr, ptr, ptr, ptr, %struct._address, %struct._address, %struct._address, %struct._address, %struct._address, %struct._address, i32, ptr, i8, [3 x i8], %struct.anon, i32, i32, i32, i32, ptr, i8, ptr, ptr, i16, i16, i32, i32, i16, i32, i32, ptr, ptr, ptr, i8, i8, i16, i16, i16, i32, i16, i16, ptr, ptr, ptr, ptr, ptr, i32, i32 }
%struct.nstime_t = type { i64, i32 }
%struct._address = type { i32, i32, ptr, ptr }
%struct.anon = type { i8, [3 x i8] }
%struct._asn1_ctx_t = type { i32, i32, i8, ptr, ptr, ptr, ptr, ptr, %struct.anon.0, %struct.anon.3, %struct.anon.4, ptr }
%struct.anon.0 = type { i32, i8, i8, i8, ptr, ptr, i32, i32, ptr, ptr, ptr, %union.anon }
%union.anon = type { %struct.anon.1 }
%struct.anon.1 = type { ptr }
%struct.anon.3 = type { ptr, ptr, ptr }
%struct.anon.4 = type { i32, i8, ptr, i32, i32, ptr, ptr, ptr, %union.anon.5 }
%union.anon.5 = type { %struct.anon.6 }
%struct.anon.6 = type { ptr }

@gsm_map_handle = internal global ptr null, align 8
@de_facility.comp_type_tag = internal global i32 0, align 4
@.str.905 = private unnamed_addr constant [2 x i8] c"/\00", align 1
@.str.906 = private unnamed_addr constant [11 x i8] c"(GSM MAP) \00", align 1

; Function Attrs: null_pointer_is_valid sspstrong uwtable
define internal zeroext i16 @de_facility(ptr noundef %0, ptr noundef %1, ptr noundef %2, i32 noundef %3, i32 noundef %4, ptr noundef %5, i32 noundef %6) #1 {
  %8 = alloca ptr, align 8
  %9 = alloca ptr, align 8
  %10 = alloca ptr, align 8
  %11 = alloca i32, align 4
  %12 = alloca i32, align 4
  %13 = alloca ptr, align 8
  %14 = alloca i32, align 4
  %15 = alloca i32, align 4
  %16 = alloca i8, align 1
  %17 = alloca i8, align 1
  %18 = alloca i8, align 1
  %19 = alloca i32, align 4
  %20 = alloca i32, align 4
  %21 = alloca i32, align 4
  %22 = alloca %struct._asn1_ctx_t, align 8
  %23 = alloca ptr, align 8
  store ptr %0, ptr %8, align 8
  store ptr %1, ptr %9, align 8
  store ptr %2, ptr %10, align 8
  store i32 %3, ptr %11, align 4
  store i32 %4, ptr %12, align 4
  store ptr %5, ptr %13, align 8
  store i32 %6, ptr %14, align 4
  call void @llvm.lifetime.start.p0(i64 4, ptr %15) #7
  call void @llvm.lifetime.start.p0(i64 1, ptr %16) #7
  call void @llvm.lifetime.start.p0(i64 1, ptr %17) #7
  call void @llvm.lifetime.start.p0(i64 1, ptr %18) #7
  store i8 0, ptr %18, align 1
  call void @llvm.lifetime.start.p0(i64 4, ptr %19) #7
  store i32 0, ptr %19, align 4
  call void @llvm.lifetime.start.p0(i64 4, ptr %20) #7
  call void @llvm.lifetime.start.p0(i64 4, ptr %21) #7
  call void @llvm.lifetime.start.p0(i64 208, ptr %22) #7
  call void @llvm.lifetime.start.p0(i64 8, ptr %23) #7
  store ptr null, ptr %23, align 8
  %24 = load ptr, ptr %10, align 8
  call void @asn1_ctx_init(ptr noundef %22, i32 noundef 0, i1 noundef zeroext true, ptr noundef %24)
  %25 = load i32, ptr %11, align 4
  store i32 %25, ptr %15, align 4
  %26 = load ptr, ptr %10, align 8
  %27 = getelementptr inbounds nuw %struct._packet_info, ptr %26, i32 0, i32 1
  %28 = load ptr, ptr %27, align 8
  call void @col_append_str(ptr noundef %28, i32 noundef 35, ptr noundef @.str.905)
  %29 = load ptr, ptr %10, align 8
  %30 = getelementptr inbounds nuw %struct._packet_info, ptr %29, i32 0, i32 1
  %31 = load ptr, ptr %30, align 8
  call void @col_set_fence(ptr noundef %31, i32 noundef 35)
  br label %32

32:                                               ; preds = %38, %7
  %33 = load i32, ptr %12, align 4
  %34 = load i32, ptr %11, align 4
  %35 = load i32, ptr %15, align 4
  %36 = sub i32 %34, %35
  %37 = icmp ugt i32 %33, %36
  br i1 %37, label %38, label %69

38:                                               ; preds = %32
  %39 = load ptr, ptr %8, align 8
  %40 = load i32, ptr %11, align 4
  %41 = call i32 @get_ber_identifier(ptr noundef %39, i32 noundef %40, ptr noundef %16, ptr noundef %17, ptr noundef @de_facility.comp_type_tag)
  store i32 %41, ptr %20, align 4
  %42 = load ptr, ptr %8, align 8
  %43 = load i32, ptr %20, align 4
  %44 = call i32 @get_ber_length(ptr noundef %42, i32 noundef %43, ptr noundef %19, ptr noundef %18)
  store i32 %44, ptr %20, align 4
  %45 = load i32, ptr %20, align 4
  %46 = load i32, ptr %11, align 4
  %47 = sub i32 %45, %46
  store i32 %47, ptr %21, align 4
  %48 = load i32, ptr %21, align 4
  %49 = load i32, ptr %19, align 4
  %50 = add i32 %48, %49
  store i32 %50, ptr %19, align 4
  %51 = load ptr, ptr %8, align 8
  %52 = load i32, ptr %11, align 4
  %53 = load i32, ptr %19, align 4
  %54 = call ptr @tvb_new_subset_length(ptr noundef %51, i32 noundef %52, i32 noundef %53)
  store ptr %54, ptr %23, align 8
  %55 = load ptr, ptr %10, align 8
  %56 = getelementptr inbounds nuw %struct._packet_info, ptr %55, i32 0, i32 1
  %57 = load ptr, ptr %56, align 8
  call void @col_append_str(ptr noundef %57, i32 noundef 25, ptr noundef @.str.906)
  %58 = load ptr, ptr %10, align 8
  %59 = getelementptr inbounds nuw %struct._packet_info, ptr %58, i32 0, i32 1
  %60 = load ptr, ptr %59, align 8
  call void @col_set_fence(ptr noundef %60, i32 noundef 25)
  %61 = load ptr, ptr @gsm_map_handle, align 8
  %62 = load ptr, ptr %23, align 8
  %63 = load ptr, ptr %10, align 8
  %64 = load ptr, ptr %9, align 8
  %65 = call i32 @call_dissector(ptr noundef %61, ptr noundef %62, ptr noundef %63, ptr noundef %64)
  %66 = load i32, ptr %11, align 4
  %67 = load i32, ptr %19, align 4
  %68 = add i32 %66, %67
  store i32 %68, ptr %11, align 4
  br label %32, !llvm.loop !12

69:                                               ; preds = %32
  %70 = load i32, ptr %12, align 4
  %71 = trunc i32 %70 to i16
  call void @llvm.lifetime.end.p0(i64 8, ptr %23) #7
  call void @llvm.lifetime.end.p0(i64 208, ptr %22) #7
  call void @llvm.lifetime.end.p0(i64 4, ptr %21) #7
  call void @llvm.lifetime.end.p0(i64 4, ptr %20) #7
  call void @llvm.lifetime.end.p0(i64 4, ptr %19) #7
  call void @llvm.lifetime.end.p0(i64 1, ptr %18) #7
  call void @llvm.lifetime.end.p0(i64 1, ptr %17) #7
  call void @llvm.lifetime.end.p0(i64 1, ptr %16) #7
  call void @llvm.lifetime.end.p0(i64 4, ptr %15) #7
  ret i16 %71
}