; Function Attrs: null_pointer_is_valid sspstrong uwtable
define internal noundef zeroext i16 @de_facility(ptr noundef %0, ptr noundef %1, ptr noundef %2, i32 noundef %3, i32 noundef %4, ptr readnone captures(none) %5, i32 %6) #1 {
  %8 = alloca i8, align 1
  %9 = alloca i8, align 1
  %10 = alloca i8, align 1
  %11 = alloca i32, align 4
  %12 = alloca %struct._asn1_ctx_t, align 8
  call void @llvm.lifetime.start.p0(i64 1, ptr nonnull %8) #8
  call void @llvm.lifetime.start.p0(i64 1, ptr nonnull %9) #8
  call void @llvm.lifetime.start.p0(i64 1, ptr nonnull %10) #8
  store i8 0, ptr %10, align 1
  call void @llvm.lifetime.start.p0(i64 4, ptr nonnull %11) #8
  store i32 0, ptr %11, align 4
  call void @llvm.lifetime.start.p0(i64 208, ptr nonnull %12) #8
  call void @asn1_ctx_init(ptr noundef nonnull %12, i32 noundef 0, i1 noundef zeroext true, ptr noundef %2)
  %13 = getelementptr inbounds nuw i8, ptr %2, i64 8
  %14 = load ptr, ptr %13, align 8
  call void @col_append_str(ptr noundef %14, i32 noundef 35, ptr noundef nonnull @.str.905)
  %15 = load ptr, ptr %13, align 8
  call void @col_set_fence(ptr noundef %15, i32 noundef 35)
  %.not = icmp eq i32 %4, 0
  br i1 %.not, label %._crit_edge, label %.lr.ph

.lr.ph:                                           ; preds = %7, %.lr.ph
  %.023 = phi i32 [ %27, %.lr.ph ], [ %3, %7 ]
  %16 = call i32 @get_ber_identifier(ptr noundef %0, i32 noundef %.023, ptr noundef nonnull %8, ptr noundef nonnull %9, ptr noundef nonnull @de_facility.comp_type_tag)
  %17 = call i32 @get_ber_length(ptr noundef %0, i32 noundef %16, ptr noundef nonnull %11, ptr noundef nonnull %10)
  %18 = sub i32 %17, %.023
  %19 = load i32, ptr %11, align 4
  %20 = add i32 %18, %19
  store i32 %20, ptr %11, align 4
  %21 = call ptr @tvb_new_subset_length(ptr noundef %0, i32 noundef %.023, i32 noundef %20)
  %22 = load ptr, ptr %13, align 8
  call void @col_append_str(ptr noundef %22, i32 noundef 25, ptr noundef nonnull @.str.906)
  %23 = load ptr, ptr %13, align 8
  call void @col_set_fence(ptr noundef %23, i32 noundef 25)
  %24 = load ptr, ptr @gsm_map_handle, align 8
  %25 = call i32 @call_dissector(ptr noundef %24, ptr noundef %21, ptr noundef %2, ptr noundef %1)
  %26 = load i32, ptr %11, align 4
  %27 = add i32 %26, %.023
  %28 = sub i32 %27, %3
  %29 = icmp ugt i32 %4, %28
  br i1 %29, label %.lr.ph, label %._crit_edge, !llvm.loop !10

._crit_edge:                                      ; preds = %.lr.ph, %7
  %30 = trunc i32 %4 to i16
  call void @llvm.lifetime.end.p0(i64 208, ptr nonnull %12) #8
  call void @llvm.lifetime.end.p0(i64 4, ptr nonnull %11) #8
  call void @llvm.lifetime.end.p0(i64 1, ptr nonnull %10) #8
  call void @llvm.lifetime.end.p0(i64 1, ptr nonnull %9) #8
  call void @llvm.lifetime.end.p0(i64 1, ptr nonnull %8) #8
  ret i16 %30
}